Certificate:
    Data:
        Version: 3 (0x2)
        Serial Number: 15085682316263793443 (0xd15b1c23a74ba323)
    Signature Algorithm: sha1WithRSAEncryption
        Issuer: C=IT, ST=Florence, O=University of Florence, OU=DISIT lab, CN=Snap4city CA Root/emailAddress=snap4city@disit.org
        Validity
            Not Before: Sep  6 14:33:38 2018 GMT
            Not After : Jan 21 14:33:38 2046 GMT
        Subject: C=IT, ST=Florence, O=University of Florence, OU=DISIT lab, CN=Snap4city CA Root/emailAddress=snap4city@disit.org
        Subject Public Key Info:
            Public Key Algorithm: rsaEncryption
                Public-Key: (4096 bit)
                Modulus:
                    00:cd:cd:08:6c:41:26:b1:14:53:c7:6e:57:9f:f0:
                    58:0f:af:a4:98:cd:75:a0:61:d7:d1:a6:39:05:36:
                    f4:e6:84:4f:04:e5:4e:90:2e:ec:3d:e0:31:5d:59:
                    91:7a:cc:de:28:0c:e1:72:be:0c:64:87:76:c6:87:
                    58:71:70:5b:56:81:9e:24:a9:e2:88:3d:76:03:b1:
                    74:c0:00:cf:2a:33:8a:4a:8b:95:9a:f1:60:8d:11:
                    ec:b2:e6:6f:2e:b2:72:3a:88:7c:3f:ed:76:9d:0f:
                    d2:bd:ce:d1:9a:6a:5d:c8:53:08:bb:a2:5c:57:e9:
                    ac:df:e6:4d:2d:4e:3e:21:f5:2b:d4:cd:ca:d5:d3:
                    30:25:d0:e5:14:de:d0:02:20:b9:d4:fd:ff:22:23:
                    cc:d8:c6:75:a7:99:e1:59:31:65:5f:7f:9b:67:c8:
                    19:5e:f3:2b:e8:5e:1e:ff:fd:16:33:e0:83:cf:93:
                    4d:27:e5:83:da:bb:c5:d3:0f:96:96:4c:7d:8f:9a:
                    0e:4a:ef:59:7e:f8:31:34:f2:d2:3d:0e:d0:31:86:
                    00:cc:a5:c8:b2:96:54:0a:33:15:7b:05:51:71:f6:
                    43:e4:82:34:87:be:30:bf:9b:a1:09:30:46:db:5f:
                    10:0b:87:d0:5b:5c:cc:c5:65:bf:80:88:8c:2a:01:
                    82:69:bf:88:d4:12:c8:b9:b8:6a:cb:c2:db:0c:5b:
                    0f:a3:5a:b4:92:fe:42:cc:e7:48:ba:e7:80:87:ad:
                    0f:fc:f2:ba:d6:af:93:b3:2d:f2:bd:97:5f:0d:58:
                    6a:c4:dc:82:bd:5c:ef:0f:07:d0:fc:65:7d:5f:56:
                    35:d1:0a:61:b6:a6:b3:2e:d5:dd:73:a4:f3:18:58:
                    7b:8d:0b:8b:c4:6d:c9:52:30:7c:31:cd:c4:6a:1b:
                    b1:4b:fd:5f:f2:2b:3c:33:ea:52:3a:fe:89:3d:98:
                    d5:72:24:c3:a9:1e:0c:fb:97:76:08:d1:77:b3:83:
                    c7:b1:73:04:39:49:67:41:9e:ae:2b:79:37:c1:cd:
                    d7:2d:6d:2e:cc:dc:bd:0c:c1:c7:05:3e:2e:59:89:
                    25:ff:a4:b9:6a:2d:74:25:37:1e:15:7f:2b:fe:43:
                    91:62:28:82:30:c8:d8:84:30:d5:4d:de:fd:42:df:
                    25:2d:ea:a9:25:f3:66:c1:a1:c5:00:84:9b:1a:ef:
                    22:e6:39:6f:29:86:cd:2f:1f:93:fe:5f:ef:b1:61:
                    eb:d4:f2:a2:d6:2c:a5:b3:c1:18:fb:7e:9e:b5:fe:
                    8f:94:a3:32:1a:64:17:80:4c:b1:3b:7a:3f:21:17:
                    59:5e:64:d5:e7:7a:31:ae:9e:a9:47:3b:8c:20:86:
                    f4:46:cb
                Exponent: 65537 (0x10001)
        X509v3 extensions:
            X509v3 Subject Key Identifier: 
                34:9D:AD:37:72:E9:61:7E:59:CD:6E:ED:C5:3B:8B:4E:C6:5C:37:5E
            X509v3 Authority Key Identifier: 
                keyid:34:9D:AD:37:72:E9:61:7E:59:CD:6E:ED:C5:3B:8B:4E:C6:5C:37:5E
                DirName:/C=IT/ST=Florence/O=University of Florence/OU=DISIT lab/CN=Snap4city CA Root/emailAddress=snap4city@disit.org
                serial:D1:5B:1C:23:A7:4B:A3:23

            X509v3 Basic Constraints: 
                CA:TRUE
            X509v3 CRL Distribution Points: 

                Full Name:
                  URI:https://www.snap4city.com/example_ca.crl

    Signature Algorithm: sha1WithRSAEncryption
         17:28:21:26:62:b6:bc:f6:46:d6:df:2a:47:d1:1c:b3:3b:06:
         64:4d:1a:85:a9:c6:2b:84:d0:80:06:49:95:20:05:15:89:20:
         26:c0:cd:46:f5:26:77:d0:de:d8:3f:29:02:b8:67:5c:0c:5d:
         3a:bb:94:b1:27:1a:ea:ec:4f:fe:8b:59:6a:d6:a0:69:b5:8a:
         91:29:d6:da:10:ce:9a:e5:78:04:f3:88:dc:7a:e5:95:ee:d5:
         f2:42:f5:32:12:c5:25:1e:18:7a:ba:1a:9b:d9:c7:4d:a5:32:
         1f:a2:f7:5b:c9:08:64:06:2d:4d:0f:65:cb:3f:4d:a8:c9:02:
         43:7a:6a:14:8f:6a:01:e3:9d:b1:34:8b:32:f8:20:94:2a:17:
         4f:81:0a:b7:ab:1a:b1:b3:62:dc:e9:d3:4e:e7:e0:1e:f0:7e:
         1c:fe:76:41:37:41:73:64:b2:64:4d:96:28:07:8a:68:ec:d8:
         6d:fa:9c:34:9e:5c:47:47:c0:42:d7:94:9b:ca:16:3a:2a:25:
         e9:b7:e1:34:78:28:50:f1:d2:71:ec:9e:d7:fc:c1:a1:95:0d:
         d7:f9:76:a1:da:42:75:12:9b:c3:fe:57:81:38:13:6c:37:08:
         ad:19:ca:ef:99:17:ad:32:63:af:b0:b0:a1:89:44:93:f8:a9:
         98:3f:e1:ce:a2:a3:e7:8b:e4:33:cd:9c:f2:b1:b3:67:f7:be:
         34:67:cf:7f:fd:1d:ba:46:00:dd:d2:06:0c:9f:ac:d7:6f:d1:
         0d:de:db:af:f3:93:68:0a:7c:c8:11:04:47:01:72:1f:62:6b:
         77:20:ff:b4:c8:43:37:b2:db:1b:59:ce:bf:63:eb:f2:44:1f:
         03:92:52:6e:2d:10:33:cc:65:c7:03:7e:69:e7:e1:df:10:c1:
         b2:06:97:6d:09:51:c4:ae:69:42:ac:08:a3:e2:19:48:4d:77:
         24:c0:d0:90:0e:e4:be:b0:b4:0b:18:72:74:a3:8b:33:13:a8:
         17:90:e4:24:fa:66:05:3c:ee:c7:ab:ad:76:50:61:56:0d:4f:
         de:11:f9:18:43:cc:0c:ae:95:e0:35:c5:03:27:be:f6:8e:0d:
         9a:d1:d1:55:a8:84:32:73:73:1f:f3:e2:a1:c3:78:3d:07:71:
         d2:86:8c:dd:63:18:4b:5e:1b:9a:62:0b:b3:f4:1a:c3:b2:eb:
         2b:89:c4:e9:3b:d3:f7:32:4b:4d:92:c0:d9:b5:48:a9:4a:dc:
         b0:6c:9c:8d:73:a0:df:6e:a7:33:47:4c:ce:0e:4b:3f:75:51:
         c9:9a:16:61:0c:b5:86:7c:fb:15:9e:33:40:f3:62:ab:f8:dc:
         d5:28:eb:c5:ce:0b:3b:f6
-----BEGIN CERTIFICATE-----
MIIG6jCCBNKgAwIBAgIJANFbHCOnS6MjMA0GCSqGSIb3DQEBBQUAMIGVMQswCQYD
VQQGEwJJVDERMA8GA1UECAwIRmxvcmVuY2UxHzAdBgNVBAoMFlVuaXZlcnNpdHkg
b2YgRmxvcmVuY2UxEjAQBgNVBAsMCURJU0lUIGxhYjEaMBgGA1UEAwwRU25hcDRj
aXR5IENBIFJvb3QxIjAgBgkqhkiG9w0BCQEWE3NuYXA0Y2l0eUBkaXNpdC5vcmcw
HhcNMTgwOTA2MTQzMzM4WhcNNDYwMTIxMTQzMzM4WjCBlTELMAkGA1UEBhMCSVQx
ETAPBgNVBAgMCEZsb3JlbmNlMR8wHQYDVQQKDBZVbml2ZXJzaXR5IG9mIEZsb3Jl
bmNlMRIwEAYDVQQLDAlESVNJVCBsYWIxGjAYBgNVBAMMEVNuYXA0Y2l0eSBDQSBS
b290MSIwIAYJKoZIhvcNAQkBFhNzbmFwNGNpdHlAZGlzaXQub3JnMIICIjANBgkq
hkiG9w0BAQEFAAOCAg8AMIICCgKCAgEAzc0IbEEmsRRTx25Xn/BYD6+kmM11oGHX
0aY5BTb05oRPBOVOkC7sPeAxXVmReszeKAzhcr4MZId2xodYcXBbVoGeJKniiD12
A7F0wADPKjOKSouVmvFgjRHssuZvLrJyOoh8P+12nQ/Svc7RmmpdyFMIu6JcV+ms
3+ZNLU4+IfUr1M3K1dMwJdDlFN7QAiC51P3/IiPM2MZ1p5nhWTFlX3+bZ8gZXvMr
6F4e//0WM+CDz5NNJ+WD2rvF0w+Wlkx9j5oOSu9ZfvgxNPLSPQ7QMYYAzKXIspZU
CjMVewVRcfZD5II0h74wv5uhCTBG218QC4fQW1zMxWW/gIiMKgGCab+I1BLIubhq
y8LbDFsPo1q0kv5CzOdIuueAh60P/PK61q+Tsy3yvZdfDVhqxNyCvVzvDwfQ/GV9
X1Y10QphtqazLtXdc6TzGFh7jQuLxG3JUjB8Mc3EahuxS/1f8is8M+pSOv6JPZjV
ciTDqR4M+5d2CNF3s4PHsXMEOUlnQZ6uK3k3wc3XLW0uzNy9DMHHBT4uWYkl/6S5
ai10JTceFX8r/kORYiiCMMjYhDDVTd79Qt8lLeqpJfNmwaHFAISbGu8i5jlvKYbN
Lx+T/l/vsWHr1PKi1iyls8EY+36etf6PlKMyGmQXgEyxO3o/IRdZXmTV53oxrp6p
RzuMIIb0RssCAwEAAaOCATkwggE1MB0GA1UdDgQWBBQ0na03culhflnNbu3FO4tO
xlw3XjCBygYDVR0jBIHCMIG/gBQ0na03culhflnNbu3FO4tOxlw3XqGBm6SBmDCB
lTELMAkGA1UEBhMCSVQxETAPBgNVBAgMCEZsb3JlbmNlMR8wHQYDVQQKDBZVbml2
ZXJzaXR5IG9mIEZsb3JlbmNlMRIwEAYDVQQLDAlESVNJVCBsYWIxGjAYBgNVBAMM
EVNuYXA0Y2l0eSBDQSBSb290MSIwIAYJKoZIhvcNAQkBFhNzbmFwNGNpdHlAZGlz
aXQub3JnggkA0VscI6dLoyMwDAYDVR0TBAUwAwEB/zA5BgNVHR8EMjAwMC6gLKAq
hihodHRwczovL3d3dy5zbmFwNGNpdHkuY29tL2V4YW1wbGVfY2EuY3JsMA0GCSqG
SIb3DQEBBQUAA4ICAQAXKCEmYra89kbW3ypH0RyzOwZkTRqFqcYrhNCABkmVIAUV
iSAmwM1G9SZ30N7YPykCuGdcDF06u5SxJxrq7E/+i1lq1qBptYqRKdbaEM6a5XgE
84jceuWV7tXyQvUyEsUlHhh6uhqb2cdNpTIfovdbyQhkBi1ND2XLP02oyQJDemoU
j2oB452xNIsy+CCUKhdPgQq3qxqxs2Lc6dNO5+Ae8H4c/nZBN0FzZLJkTZYoB4po
7Nht+pw0nlxHR8BC15SbyhY6KiXpt+E0eChQ8dJx7J7X/MGhlQ3X+Xah2kJ1EpvD
/leBOBNsNwitGcrvmRetMmOvsLChiUST+KmYP+HOoqPni+QzzZzysbNn9740Z89/
/R26RgDd0gYMn6zXb9EN3tuv85NoCnzIEQRHAXIfYmt3IP+0yEM3stsbWc6/Y+vy
RB8DklJuLRAzzGXHA35p5+HfEMGyBpdtCVHErmlCrAij4hlITXckwNCQDuS+sLQL
GHJ0o4szE6gXkOQk+mYFPO7Hq612UGFWDU/eEfkYQ8wMrpXgNcUDJ772jg2a0dFV
qIQyc3Mf8+Khw3g9B3HShozdYxhLXhuaYguz9BrDsusricTpO9P3MktNksDZtUip
StywbJyNc6DfbqczR0zODks/dVHJmhZhDLWGfPsVnjNA82Kr+NzVKOvFzgs79g==
-----END CERTIFICATE-----
